target datalayout = "e-m:e-p270:32:32-p271:32:32-p272:64:64-i64:64-i128:128-f80:128-n8:16:32:64-S128"
target triple = "x86_64-pc-linux-gnu"

%struct.AVFilterContext = type { ptr, ptr, ptr, ptr, ptr, i32, ptr, ptr, i32, ptr, ptr, i32, i32, ptr, ptr, ptr, ptr, i32, ptr, i32, i32 }
%struct.SegmentContext = type { ptr, ptr, ptr, i32, i32, i32, i64, ptr }
%struct.AVRational = type { i32, i32 }
%struct.AVFilterLink = type { ptr, ptr, ptr, ptr, i32, i32, i32, i32, %struct.AVRational, i32, i32, i32, %struct.AVChannelLayout, %struct.AVRational, ptr, i32, %struct.AVFilterFormatsConfig, %struct.AVFilterFormatsConfig }
%struct.AVChannelLayout = type { i32, i32, %union.anon.1, ptr }
%union.anon.1 = type { i64 }
%struct.AVFilterFormatsConfig = type { ptr, ptr, ptr, ptr, ptr }

; Function Attrs: nounwind uwtable
define internal i32 @config_input(ptr noundef %0) #1 {
  %2 = alloca ptr, align 8
  %3 = alloca ptr, align 8
  %4 = alloca ptr, align 8
  %5 = alloca %struct.AVRational, align 4
  %6 = alloca i32, align 4
  %7 = alloca %struct.AVRational, align 4
  store ptr %0, ptr %2, align 8, !tbaa !25
  call void @llvm.lifetime.start.p0(i64 8, ptr %3) #10
  %8 = load ptr, ptr %2, align 8, !tbaa !25
  %9 = getelementptr inbounds nuw %struct.AVFilterLink, ptr %8, i32 0, i32 2
  %10 = load ptr, ptr %9, align 8, !tbaa !66
  store ptr %10, ptr %3, align 8, !tbaa !4
  call void @llvm.lifetime.start.p0(i64 8, ptr %4) #10
  %11 = load ptr, ptr %3, align 8, !tbaa !4
  %12 = getelementptr inbounds nuw %struct.AVFilterContext, ptr %11, i32 0, i32 9
  %13 = load ptr, ptr %12, align 8, !tbaa !9
  store ptr %13, ptr %4, align 8, !tbaa !22
  call void @llvm.lifetime.start.p0(i64 8, ptr %5) #10
  %14 = load ptr, ptr %2, align 8, !tbaa !25
  %15 = getelementptr inbounds nuw %struct.AVFilterLink, ptr %14, i32 0, i32 13
  call void @llvm.memcpy.p0.p0.i64(ptr align 4 %5, ptr align 8 %15, i64 8, i1 false), !tbaa.struct !67
  %16 = load ptr, ptr %4, align 8, !tbaa !22
  %17 = getelementptr inbounds nuw %struct.SegmentContext, ptr %16, i32 0, i32 3
  %18 = load i32, ptr %17, align 8, !tbaa !56
  %19 = icmp ne i32 %18, 0
  br i1 %19, label %20, label %52

20:                                               ; preds = %1
  call void @llvm.lifetime.start.p0(i64 4, ptr %6) #10
  store i32 0, ptr %6, align 4, !tbaa !35
  br label %21

21:                                               ; preds = %48, %20
  %22 = load i32, ptr %6, align 4, !tbaa !35
  %23 = load ptr, ptr %4, align 8, !tbaa !22
  %24 = getelementptr inbounds nuw %struct.SegmentContext, ptr %23, i32 0, i32 5
  %25 = load i32, ptr %24, align 8, !tbaa !36
  %26 = sub nsw i32 %25, 1
  %27 = icmp slt i32 %22, %26
  br i1 %27, label %29, label %28

28:                                               ; preds = %21
  call void @llvm.lifetime.end.p0(i64 4, ptr %6) #10
  br label %51

29:                                               ; preds = %21
  %30 = load ptr, ptr %4, align 8, !tbaa !22
  %31 = getelementptr inbounds nuw %struct.SegmentContext, ptr %30, i32 0, i32 7
  %32 = load ptr, ptr %31, align 8, !tbaa !50
  %33 = load i32, ptr %6, align 4, !tbaa !35
  %34 = sext i32 %33 to i64
  %35 = getelementptr inbounds i64, ptr %32, i64 %34
  %36 = load i64, ptr %35, align 8, !tbaa !51
  %37 = getelementptr inbounds nuw %struct.AVRational, ptr %7, i32 0, i32 0
  store i32 1, ptr %37, align 4, !tbaa !68
  %38 = getelementptr inbounds nuw %struct.AVRational, ptr %7, i32 0, i32 1
  store i32 1000000, ptr %38, align 4, !tbaa !69
  %39 = load i64, ptr %7, align 4
  %40 = load i64, ptr %5, align 4
  %41 = call i64 @av_rescale_q(i64 noundef %36, i64 %39, i64 %40) #11
  %42 = load ptr, ptr %4, align 8, !tbaa !22
  %43 = getelementptr inbounds nuw %struct.SegmentContext, ptr %42, i32 0, i32 7
  %44 = load ptr, ptr %43, align 8, !tbaa !50
  %45 = load i32, ptr %6, align 4, !tbaa !35
  %46 = sext i32 %45 to i64
  %47 = getelementptr inbounds i64, ptr %44, i64 %46
  store i64 %41, ptr %47, align 8, !tbaa !51
  br label %48

48:                                               ; preds = %29
  %49 = load i32, ptr %6, align 4, !tbaa !35
  %50 = add nsw i32 %49, 1
  store i32 %50, ptr %6, align 4, !tbaa !35
  br label %21, !llvm.loop !70

51:                                               ; preds = %28
  br label %52

52:                                               ; preds = %51, %1
  call void @llvm.lifetime.end.p0(i64 8, ptr %5) #10
  call void @llvm.lifetime.end.p0(i64 8, ptr %4) #10
  call void @llvm.lifetime.end.p0(i64 8, ptr %3) #10
  ret i32 0
}