; Function Attrs: nofree nosync nounwind memory(readwrite, inaccessiblemem: none) uwtable
define internal noundef i32 @config_input(ptr noundef readonly captures(none) %0) #2 {
  %2 = getelementptr inbounds nuw i8, ptr %0, i64 16
  %3 = load ptr, ptr %2, align 8, !tbaa !63
  %4 = getelementptr inbounds nuw i8, ptr %3, i64 72
  %5 = load ptr, ptr %4, align 8, !tbaa !4
  %6 = getelementptr inbounds nuw i8, ptr %0, i64 96
  %.sroa.04.0.copyload = load i64, ptr %6, align 8
  %7 = getelementptr inbounds nuw i8, ptr %5, i64 24
  %8 = load i32, ptr %7, align 8, !tbaa !50
  %.not = icmp eq i32 %8, 0
  br i1 %.not, label %.loopexit, label %.preheader

.preheader:                                       ; preds = %1
  %9 = getelementptr inbounds nuw i8, ptr %5, i64 32
  %10 = load i32, ptr %9, align 8, !tbaa !29
  %11 = icmp sgt i32 %10, 1
  br i1 %11, label %.lr.ph, label %.loopexit

.lr.ph:                                           ; preds = %.preheader
  %12 = add nsw i32 %10, -1
  %13 = getelementptr inbounds nuw i8, ptr %5, i64 48
  %14 = load ptr, ptr %13, align 8, !tbaa !44
  %wide.trip.count = zext nneg i32 %12 to i64
  br label %15

15:                                               ; preds = %.lr.ph, %15
  %indvars.iv = phi i64 [ 0, %.lr.ph ], [ %indvars.iv.next, %15 ]
  %16 = getelementptr inbounds nuw i64, ptr %14, i64 %indvars.iv
  %17 = load i64, ptr %16, align 8, !tbaa !45
  %18 = tail call i64 @av_rescale_q(i64 noundef %17, i64 4294967296000001, i64 %.sroa.04.0.copyload) #11
  store i64 %18, ptr %16, align 8, !tbaa !45
  %indvars.iv.next = add nuw nsw i64 %indvars.iv, 1
  %exitcond.not = icmp eq i64 %indvars.iv.next, %wide.trip.count
  br i1 %exitcond.not, label %.loopexit, label %15, !llvm.loop !64

.loopexit:                                        ; preds = %15, %.preheader, %1
  ret i32 0
}